target datalayout = "e-m:e-p270:32:32-p271:32:32-p272:64:64-i64:64-i128:128-f80:128-n8:16:32:64-S128"
target triple = "x86_64-pc-linux-gnu"

%struct.rxinfo = type { i8, i8, i16, i32, i32, i32, i32 }

@hf_afs_cb_errcode = internal global i32 0, align 4
@hf_afs_cm_uuid = internal global i32 0, align 4
@hf_afs_cm_numint = internal global i32 0, align 4
@hf_afs_cm_ipaddr = internal global i32 0, align 4
@hf_afs_cm_netmask = internal global i32 0, align 4
@hf_afs_cm_mtu = internal global i32 0, align 4
@hf_afs_cm_numcap = internal global i32 0, align 4
@hf_afs_cm_capabilities = internal global i32 0, align 4
@.str.367 = private unnamed_addr constant [13 x i8] c"Capabilities\00", align 1
@hf_afs_cm_cap_errortrans = internal global i32 0, align 4
@ett_afs_cm_interfaces = internal global i32 0, align 4
@ett_afs_cm_capabilities = internal global i32 0, align 4
@.str.960 = private unnamed_addr constant [11 x i8] c"Interfaces\00", align 1

; Function Attrs: null_pointer_is_valid sspstrong uwtable
define internal void @OUT_CM_CAPABILITIES(ptr noundef %0) #0 {
  %2 = alloca ptr, align 8
  store ptr %0, ptr %2, align 8
  %3 = load ptr, ptr %2, align 8
  %4 = load i32, ptr @ett_afs_cm_capabilities, align 4
  %5 = call ptr (ptr, i32, i32, ptr, ...) @ptvcursor_add_text_with_subtree(ptr noundef %3, i32 noundef -1, i32 noundef %4, ptr noundef @.str.367)
  %6 = load ptr, ptr %2, align 8
  %7 = load i32, ptr @hf_afs_cm_numcap, align 4
  %8 = call ptr @ptvcursor_add(ptr noundef %6, i32 noundef %7, i32 noundef 4, i32 noundef 0)
  %9 = load ptr, ptr %2, align 8
  %10 = load i32, ptr @hf_afs_cm_capabilities, align 4
  %11 = call ptr @ptvcursor_add_no_advance(ptr noundef %9, i32 noundef %10, i32 noundef 4, i32 noundef 0)
  %12 = load ptr, ptr %2, align 8
  %13 = load i32, ptr @hf_afs_cm_cap_errortrans, align 4
  %14 = call ptr @ptvcursor_add(ptr noundef %12, i32 noundef %13, i32 noundef 4, i32 noundef 0)
  %15 = load ptr, ptr %2, align 8
  call void @ptvcursor_pop_subtree(ptr noundef %15)
  ret void
}

; Function Attrs: null_pointer_is_valid sspstrong uwtable
define internal void @OUT_CM_INTERFACES(ptr noundef %0) #0 {
  %2 = alloca ptr, align 8
  %3 = alloca i32, align 4
  %4 = alloca i32, align 4
  %5 = alloca i32, align 4
  store ptr %0, ptr %2, align 8
  call void @llvm.lifetime.start.p0(i64 4, ptr %3) #9
  call void @llvm.lifetime.start.p0(i64 4, ptr %4) #9
  store i32 32, ptr %4, align 4
  call void @llvm.lifetime.start.p0(i64 4, ptr %5) #9
  %6 = load ptr, ptr %2, align 8
  %7 = call ptr @ptvcursor_tvbuff(ptr noundef %6)
  %8 = load ptr, ptr %2, align 8
  %9 = call i32 @ptvcursor_current_offset(ptr noundef %8)
  %10 = call i32 @tvb_get_ntohl(ptr noundef %7, i32 noundef %9)
  store i32 %10, ptr %5, align 4
  %11 = load ptr, ptr %2, align 8
  %12 = load i32, ptr @ett_afs_cm_interfaces, align 4
  %13 = call ptr (ptr, i32, i32, ptr, ...) @ptvcursor_add_text_with_subtree(ptr noundef %11, i32 noundef -1, i32 noundef %12, ptr noundef @.str.960)
  %14 = load ptr, ptr %2, align 8
  %15 = load i32, ptr @hf_afs_cm_numint, align 4
  %16 = call ptr @ptvcursor_add(ptr noundef %14, i32 noundef %15, i32 noundef 4, i32 noundef 0)
  %17 = load ptr, ptr %2, align 8
  %18 = load i32, ptr @hf_afs_cm_uuid, align 4
  %19 = call ptr @ptvcursor_add(ptr noundef %17, i32 noundef %18, i32 noundef 44, i32 noundef 0)
  store i32 0, ptr %3, align 4
  br label %20

20:                                               ; preds = %28, %1
  %21 = load i32, ptr %3, align 4
  %22 = load i32, ptr %5, align 4
  %23 = icmp ult i32 %21, %22
  br i1 %23, label %24, label %31

24:                                               ; preds = %20
  %25 = load ptr, ptr %2, align 8
  %26 = load i32, ptr @hf_afs_cm_ipaddr, align 4
  %27 = call ptr @ptvcursor_add(ptr noundef %25, i32 noundef %26, i32 noundef 4, i32 noundef 0)
  br label %28

28:                                               ; preds = %24
  %29 = load i32, ptr %3, align 4
  %30 = add i32 %29, 1
  store i32 %30, ptr %3, align 4
  br label %20, !llvm.loop !37

31:                                               ; preds = %20
  %32 = load ptr, ptr %2, align 8
  %33 = load i32, ptr %4, align 4
  %34 = load i32, ptr %5, align 4
  %35 = sub i32 %33, %34
  %36 = mul i32 4, %35
  call void @ptvcursor_advance(ptr noundef %32, i32 noundef %36)
  store i32 0, ptr %3, align 4
  br label %37

37:                                               ; preds = %45, %31
  %38 = load i32, ptr %3, align 4
  %39 = load i32, ptr %5, align 4
  %40 = icmp ult i32 %38, %39
  br i1 %40, label %41, label %48

41:                                               ; preds = %37
  %42 = load ptr, ptr %2, align 8
  %43 = load i32, ptr @hf_afs_cm_netmask, align 4
  %44 = call ptr @ptvcursor_add(ptr noundef %42, i32 noundef %43, i32 noundef 4, i32 noundef 0)
  br label %45

45:                                               ; preds = %41
  %46 = load i32, ptr %3, align 4
  %47 = add i32 %46, 1
  store i32 %47, ptr %3, align 4
  br label %37, !llvm.loop !38

48:                                               ; preds = %37
  %49 = load ptr, ptr %2, align 8
  %50 = load i32, ptr %4, align 4
  %51 = load i32, ptr %5, align 4
  %52 = sub i32 %50, %51
  %53 = mul i32 4, %52
  call void @ptvcursor_advance(ptr noundef %49, i32 noundef %53)
  store i32 0, ptr %3, align 4
  br label %54

54:                                               ; preds = %62, %48
  %55 = load i32, ptr %3, align 4
  %56 = load i32, ptr %5, align 4
  %57 = icmp ult i32 %55, %56
  br i1 %57, label %58, label %65

58:                                               ; preds = %54
  %59 = load ptr, ptr %2, align 8
  %60 = load i32, ptr @hf_afs_cm_mtu, align 4
  %61 = call ptr @ptvcursor_add(ptr noundef %59, i32 noundef %60, i32 noundef 4, i32 noundef 0)
  br label %62

62:                                               ; preds = %58
  %63 = load i32, ptr %3, align 4
  %64 = add i32 %63, 1
  store i32 %64, ptr %3, align 4
  br label %54, !llvm.loop !39

65:                                               ; preds = %54
  %66 = load ptr, ptr %2, align 8
  %67 = load i32, ptr %4, align 4
  %68 = load i32, ptr %5, align 4
  %69 = sub i32 %67, %68
  %70 = mul i32 4, %69
  call void @ptvcursor_advance(ptr noundef %66, i32 noundef %70)
  %71 = load ptr, ptr %2, align 8
  call void @ptvcursor_pop_subtree(ptr noundef %71)
  call void @llvm.lifetime.end.p0(i64 4, ptr %5) #9
  call void @llvm.lifetime.end.p0(i64 4, ptr %4) #9
  call void @llvm.lifetime.end.p0(i64 4, ptr %3) #9
  ret void
}

; Function Attrs: null_pointer_is_valid sspstrong uwtable
define internal void @dissect_cb_reply(ptr noundef %0, ptr noundef %1, i32 noundef %2) #0 {
  %4 = alloca ptr, align 8
  %5 = alloca ptr, align 8
  %6 = alloca i32, align 4
  store ptr %0, ptr %4, align 8
  store ptr %1, ptr %5, align 8
  store i32 %2, ptr %6, align 4
  %7 = load ptr, ptr %5, align 8
  %8 = getelementptr inbounds nuw %struct.rxinfo, ptr %7, i32 0, i32 0
  %9 = load i8, ptr %8, align 4
  %10 = zext i8 %9 to i32
  %11 = icmp eq i32 %10, 1
  br i1 %11, label %12, label %18

12:                                               ; preds = %3
  %13 = load i32, ptr %6, align 4
  switch i32 %13, label %17 [
    i32 65538, label %14
  ]

14:                                               ; preds = %12
  %15 = load ptr, ptr %4, align 8
  call void @OUT_CM_INTERFACES(ptr noundef %15)
  %16 = load ptr, ptr %4, align 8
  call void @OUT_CM_CAPABILITIES(ptr noundef %16)
  br label %17

17:                                               ; preds = %12, %14
  br label %29

18:                                               ; preds = %3
  %19 = load ptr, ptr %5, align 8
  %20 = getelementptr inbounds nuw %struct.rxinfo, ptr %19, i32 0, i32 0
  %21 = load i8, ptr %20, align 4
  %22 = zext i8 %21 to i32
  %23 = icmp eq i32 %22, 4
  br i1 %23, label %24, label %28

24:                                               ; preds = %18
  %25 = load ptr, ptr %4, align 8
  %26 = load i32, ptr @hf_afs_cb_errcode, align 4
  %27 = call ptr @ptvcursor_add(ptr noundef %25, i32 noundef %26, i32 noundef 4, i32 noundef 0)
  br label %28

28:                                               ; preds = %24, %18
  br label %29

29:                                               ; preds = %28, %17
  ret void
}