; Function Attrs: null_pointer_is_valid sspstrong uwtable
define internal void @dissect_cb_reply(ptr noundef %0, ptr noundef readonly captures(none) %1, i32 noundef %2) #0 {
  %4 = load i8, ptr %1, align 4
  switch i8 %4, label %39 [
    i8 1, label %5
    i8 4, label %36
  ]

5:                                                ; preds = %3
  %cond = icmp eq i32 %2, 65538
  br i1 %cond, label %6, label %39

6:                                                ; preds = %5
  %7 = tail call ptr @ptvcursor_tvbuff(ptr noundef %0)
  %8 = tail call i32 @ptvcursor_current_offset(ptr noundef %0)
  %9 = tail call i32 @tvb_get_ntohl(ptr noundef %7, i32 noundef %8)
  %10 = load i32, ptr @ett_afs_cm_interfaces, align 4
  %11 = tail call ptr (ptr, i32, i32, ptr, ...) @ptvcursor_add_text_with_subtree(ptr noundef %0, i32 noundef -1, i32 noundef %10, ptr noundef nonnull @.str.960)
  %12 = load i32, ptr @hf_afs_cm_numint, align 4
  %13 = tail call ptr @ptvcursor_add(ptr noundef %0, i32 noundef %12, i32 noundef 4, i32 noundef 0)
  %14 = load i32, ptr @hf_afs_cm_uuid, align 4
  %15 = tail call ptr @ptvcursor_add(ptr noundef %0, i32 noundef %14, i32 noundef 44, i32 noundef 0)
  %.not.i = icmp eq i32 %9, 0
  br i1 %.not.i, label %._crit_edge31.thread.i, label %.lr.ph.i

._crit_edge31.thread.i:                           ; preds = %6
  tail call void @ptvcursor_advance(ptr noundef %0, i32 noundef 128)
  tail call void @ptvcursor_advance(ptr noundef %0, i32 noundef 128)
  br label %OUT_CM_INTERFACES.exit

.lr.ph.i:                                         ; preds = %6, %.lr.ph.i
  %.027.i = phi i32 [ %18, %.lr.ph.i ], [ 0, %6 ]
  %16 = load i32, ptr @hf_afs_cm_ipaddr, align 4
  %17 = tail call ptr @ptvcursor_add(ptr noundef %0, i32 noundef %16, i32 noundef 4, i32 noundef 0)
  %18 = add nuw i32 %.027.i, 1
  %exitcond.not.i = icmp eq i32 %18, %9
  br i1 %exitcond.not.i, label %.lr.ph30.preheader.i, label %.lr.ph.i, !llvm.loop !18

.lr.ph30.preheader.i:                             ; preds = %.lr.ph.i
  %19 = shl i32 %9, 2
  %20 = sub i32 128, %19
  tail call void @ptvcursor_advance(ptr noundef %0, i32 noundef %20)
  br label %.lr.ph30.i

.lr.ph30.i:                                       ; preds = %.lr.ph30.i, %.lr.ph30.preheader.i
  %.128.i = phi i32 [ %23, %.lr.ph30.i ], [ 0, %.lr.ph30.preheader.i ]
  %21 = load i32, ptr @hf_afs_cm_netmask, align 4
  %22 = tail call ptr @ptvcursor_add(ptr noundef %0, i32 noundef %21, i32 noundef 4, i32 noundef 0)
  %23 = add nuw i32 %.128.i, 1
  %exitcond38.not.i = icmp eq i32 %23, %9
  br i1 %exitcond38.not.i, label %.lr.ph34.preheader.i, label %.lr.ph30.i, !llvm.loop !19

.lr.ph34.preheader.i:                             ; preds = %.lr.ph30.i
  tail call void @ptvcursor_advance(ptr noundef %0, i32 noundef %20)
  br label %.lr.ph34.i

.lr.ph34.i:                                       ; preds = %.lr.ph34.i, %.lr.ph34.preheader.i
  %.232.i = phi i32 [ %26, %.lr.ph34.i ], [ 0, %.lr.ph34.preheader.i ]
  %24 = load i32, ptr @hf_afs_cm_mtu, align 4
  %25 = tail call ptr @ptvcursor_add(ptr noundef %0, i32 noundef %24, i32 noundef 4, i32 noundef 0)
  %26 = add nuw i32 %.232.i, 1
  %exitcond39.not.i = icmp eq i32 %26, %9
  br i1 %exitcond39.not.i, label %OUT_CM_INTERFACES.exit, label %.lr.ph34.i, !llvm.loop !20

OUT_CM_INTERFACES.exit:                           ; preds = %.lr.ph34.i, %._crit_edge31.thread.i
  %27 = phi i32 [ 128, %._crit_edge31.thread.i ], [ %20, %.lr.ph34.i ]
  tail call void @ptvcursor_advance(ptr noundef %0, i32 noundef %27)
  tail call void @ptvcursor_pop_subtree(ptr noundef %0)
  %28 = load i32, ptr @ett_afs_cm_capabilities, align 4
  %29 = tail call ptr (ptr, i32, i32, ptr, ...) @ptvcursor_add_text_with_subtree(ptr noundef %0, i32 noundef -1, i32 noundef %28, ptr noundef nonnull @.str.367)
  %30 = load i32, ptr @hf_afs_cm_numcap, align 4
  %31 = tail call ptr @ptvcursor_add(ptr noundef %0, i32 noundef %30, i32 noundef 4, i32 noundef 0)
  %32 = load i32, ptr @hf_afs_cm_capabilities, align 4
  %33 = tail call ptr @ptvcursor_add_no_advance(ptr noundef %0, i32 noundef %32, i32 noundef 4, i32 noundef 0)
  %34 = load i32, ptr @hf_afs_cm_cap_errortrans, align 4
  %35 = tail call ptr @ptvcursor_add(ptr noundef %0, i32 noundef %34, i32 noundef 4, i32 noundef 0)
  tail call void @ptvcursor_pop_subtree(ptr noundef %0)
  br label %39

36:                                               ; preds = %3
  %37 = load i32, ptr @hf_afs_cb_errcode, align 4
  %38 = tail call ptr @ptvcursor_add(ptr noundef %0, i32 noundef %37, i32 noundef 4, i32 noundef 0)
  br label %39

39:                                               ; preds = %3, %36, %OUT_CM_INTERFACES.exit, %5
  ret void
}